ccopy_reg
_reconstructor
p0
(cgoogle.oauth2.credentials
Credentials
p1
c__builtin__
object
p2
Ntp3
Rp4
(dp5
S'_token_uri'
p6
Vhttps://oauth2.googleapis.com/token
p7
sS'_client_secret'
p8
VmVwPE6siYwLmzWfF2-tcpWaw
p9
sS'_id_token'
p10
NsS'token'
p11
Vya29.Gls6Bw3oZ_Fm0Ij5auXFTG9177RinT5-Wc0iMlp2aexxfH5vuMhJaiMWzhVploMLeIN_yb4U49K9cWOK1ziBRTzUOyVhSwHDtCZfDdaARyrW1rO9bmCbGBrljWnh
p12
sS'_refresh_token'
p13
V1/nSRzAvIPcxF6h9lCgPzdrzIfqb4m64-ogaqdI9icXNE
p14
sS'_scopes'
p15
(lp16
S'https://www.googleapis.com/auth/drive'
p17
asS'_client_id'
p18
V276112818657-opl002vogv79e2o4b3b8hb41g8n7c2kd.apps.googleusercontent.com
p19
sS'expiry'
p20
cdatetime
datetime
p21
(S'\x07\xe3\x07\x03\x0c\x04\x1f\x0e\xf9\xb0'
p22
tp23
Rp24
sb.